; Function Attrs: mustprogress nounwind uwtable
define internal fastcc void @_ZNSt6vectorIN9grpc_core12_GLOBAL__N_110RbacConfig10RbacPolicy5Rules6Policy9PrincipalESaIS6_EED2Ev(ptr noundef nonnull readonly align 8 captures(none) dereferenceable(24) %0) unnamed_addr #6 align 2 personality ptr @__gxx_personality_v0 {
  %2 = load ptr, ptr %0, align 8, !tbaa !150
  %3 = getelementptr inbounds nuw i8, ptr %0, i64 8
  %4 = load ptr, ptr %3, align 8, !tbaa !153
  %.not4.i.i.i = icmp eq ptr %2, %4
  br i1 %.not4.i.i.i, label %_ZSt8_DestroyIPN9grpc_core12_GLOBAL__N_110RbacConfig10RbacPolicy5Rules6Policy9PrincipalES6_EvT_S8_RSaIT0_E.exit, label %.lr.ph.i.i.i

.lr.ph.i.i.i:                                     ; preds = %1, %_ZSt8_DestroyIN9grpc_core12_GLOBAL__N_110RbacConfig10RbacPolicy5Rules6Policy9PrincipalEEvPT_.exit.i.i.i
  %.05.i.i.i = phi ptr [ %6, %_ZSt8_DestroyIN9grpc_core12_GLOBAL__N_110RbacConfig10RbacPolicy5Rules6Policy9PrincipalEEvPT_.exit.i.i.i ], [ %2, %1 ]
  %5 = load ptr, ptr %.05.i.i.i, align 8, !tbaa !161
  %.not.i.i.i.i.i.i = icmp eq ptr %5, null
  br i1 %.not.i.i.i.i.i.i, label %_ZSt8_DestroyIN9grpc_core12_GLOBAL__N_110RbacConfig10RbacPolicy5Rules6Policy9PrincipalEEvPT_.exit.i.i.i, label %_ZNKSt14default_deleteIN9grpc_core4Rbac9PrincipalEEclEPS2_.exit.i.i.i.i.i.i

_ZNKSt14default_deleteIN9grpc_core4Rbac9PrincipalEEclEPS2_.exit.i.i.i.i.i.i: ; preds = %.lr.ph.i.i.i
  tail call void @_ZN9grpc_core4Rbac9PrincipalD2Ev(ptr noundef nonnull align 8 dereferenceable(257) %5) #26
  tail call void @_ZdlPvm(ptr noundef nonnull %5, i64 noundef 264) #30
  br label %_ZSt8_DestroyIN9grpc_core12_GLOBAL__N_110RbacConfig10RbacPolicy5Rules6Policy9PrincipalEEvPT_.exit.i.i.i

_ZSt8_DestroyIN9grpc_core12_GLOBAL__N_110RbacConfig10RbacPolicy5Rules6Policy9PrincipalEEvPT_.exit.i.i.i: ; preds = %_ZNKSt14default_deleteIN9grpc_core4Rbac9PrincipalEEclEPS2_.exit.i.i.i.i.i.i, %.lr.ph.i.i.i
  store ptr null, ptr %.05.i.i.i, align 8, !tbaa !161
  %6 = getelementptr inbounds nuw i8, ptr %.05.i.i.i, i64 8
  %.not.i.i.i = icmp eq ptr %6, %4
  br i1 %.not.i.i.i, label %_ZSt8_DestroyIPN9grpc_core12_GLOBAL__N_110RbacConfig10RbacPolicy5Rules6Policy9PrincipalES6_EvT_S8_RSaIT0_E.exitthread-pre-split, label %.lr.ph.i.i.i, !llvm.loop !170

_ZSt8_DestroyIPN9grpc_core12_GLOBAL__N_110RbacConfig10RbacPolicy5Rules6Policy9PrincipalES6_EvT_S8_RSaIT0_E.exitthread-pre-split: ; preds = %_ZSt8_DestroyIN9grpc_core12_GLOBAL__N_110RbacConfig10RbacPolicy5Rules6Policy9PrincipalEEvPT_.exit.i.i.i
  %.val.pr = load ptr, ptr %0, align 8, !tbaa !150
  br label %_ZSt8_DestroyIPN9grpc_core12_GLOBAL__N_110RbacConfig10RbacPolicy5Rules6Policy9PrincipalES6_EvT_S8_RSaIT0_E.exit

_ZSt8_DestroyIPN9grpc_core12_GLOBAL__N_110RbacConfig10RbacPolicy5Rules6Policy9PrincipalES6_EvT_S8_RSaIT0_E.exit: ; preds = %_ZSt8_DestroyIPN9grpc_core12_GLOBAL__N_110RbacConfig10RbacPolicy5Rules6Policy9PrincipalES6_EvT_S8_RSaIT0_E.exitthread-pre-split, %1
  %.val = phi ptr [ %.val.pr, %_ZSt8_DestroyIPN9grpc_core12_GLOBAL__N_110RbacConfig10RbacPolicy5Rules6Policy9PrincipalES6_EvT_S8_RSaIT0_E.exitthread-pre-split ], [ %2, %1 ]
  %.not.i.i = icmp eq ptr %.val, null
  br i1 %.not.i.i, label %_ZNSt12_Vector_baseIN9grpc_core12_GLOBAL__N_110RbacConfig10RbacPolicy5Rules6Policy9PrincipalESaIS6_EED2Ev.exit, label %7

7:                                                ; preds = %_ZSt8_DestroyIPN9grpc_core12_GLOBAL__N_110RbacConfig10RbacPolicy5Rules6Policy9PrincipalES6_EvT_S8_RSaIT0_E.exit
  %8 = getelementptr inbounds nuw i8, ptr %0, i64 16
  %.val1 = load ptr, ptr %8, align 8, !tbaa !154
  %9 = ptrtoint ptr %.val1 to i64
  %10 = ptrtoint ptr %.val to i64
  %11 = sub i64 %9, %10
  tail call void @_ZdlPvm(ptr noundef nonnull %.val, i64 noundef %11) #30
  br label %_ZNSt12_Vector_baseIN9grpc_core12_GLOBAL__N_110RbacConfig10RbacPolicy5Rules6Policy9PrincipalESaIS6_EED2Ev.exit

_ZNSt12_Vector_baseIN9grpc_core12_GLOBAL__N_110RbacConfig10RbacPolicy5Rules6Policy9PrincipalESaIS6_EED2Ev.exit: ; preds = %_ZSt8_DestroyIPN9grpc_core12_GLOBAL__N_110RbacConfig10RbacPolicy5Rules6Policy9PrincipalES6_EvT_S8_RSaIT0_E.exit, %7
  ret void
}